; Function Attrs: mustprogress nofree norecurse nosync nounwind willreturn memory(read, inaccessiblemem: none) uwtable
define hidden noundef zeroext i1 @_ZNK3smt11theory_char8has_bitsEi(ptr nocapture noundef nonnull readonly align 8 dereferenceable(384) %this, i32 noundef %v) local_unnamed_addr #6 align 2 {
entry:
  %m_bits = getelementptr inbounds i8, ptr %this, i64 192
  %0 = load ptr, ptr %m_bits, align 8
  %cmp.i = icmp eq ptr %0, null
  br i1 %cmp.i, label %land.end, label %_ZNK6vectorI7svectorIN3sat7literalEjELb1EjE4sizeEv.exit

_ZNK6vectorI7svectorIN3sat7literalEjELb1EjE4sizeEv.exit: ; preds = %entry
  %arrayidx.i = getelementptr inbounds i8, ptr %0, i64 -4
  %1 = load i32, ptr %arrayidx.i, align 4
  %cmp = icmp ugt i32 %1, %v
  br i1 %cmp, label %land.rhs, label %land.end

land.rhs:                                         ; preds = %_ZNK6vectorI7svectorIN3sat7literalEjELb1EjE4sizeEv.exit
  %idxprom.i = zext i32 %v to i64
  %arrayidx.i2 = getelementptr inbounds %class.svector.228, ptr %0, i64 %idxprom.i
  %2 = load ptr, ptr %arrayidx.i2, align 8
  %cmp.i3 = icmp eq ptr %2, null
  br i1 %cmp.i3, label %land.end, label %lor.rhs.i

lor.rhs.i:                                        ; preds = %land.rhs
  %arrayidx.i4 = getelementptr inbounds i8, ptr %2, i64 -4
  %3 = load i32, ptr %arrayidx.i4, align 4
  %cmp3.i = icmp ne i32 %3, 0
  br label %land.end

land.end:                                         ; preds = %lor.rhs.i, %land.rhs, %entry, %_ZNK6vectorI7svectorIN3sat7literalEjELb1EjE4sizeEv.exit
  %4 = phi i1 [ false, %_ZNK6vectorI7svectorIN3sat7literalEjELb1EjE4sizeEv.exit ], [ false, %entry ], [ false, %land.rhs ], [ %cmp3.i, %lor.rhs.i ]
  ret i1 %4
}